target datalayout = "e-m:e-p270:32:32-p271:32:32-p272:64:64-i64:64-i128:128-f80:128-n8:16:32:64-S128"
target triple = "x86_64-pc-linux-gnu"

%struct.pty_info = type { i32, i32 }

; Function Attrs: nounwind sspstrong uwtable
define internal i64 @pty_detach_process(i64 noundef %0) #0 {
  %2 = alloca i64, align 8
  %3 = alloca i64, align 8
  %4 = alloca ptr, align 8
  %5 = alloca i32, align 4
  %6 = alloca i32, align 4
  store i64 %0, ptr %3, align 8, !tbaa !6
  call void @llvm.lifetime.start.p0(i64 8, ptr %4) #15
  %7 = load i64, ptr %3, align 8, !tbaa !6
  %8 = inttoptr i64 %7 to ptr
  store ptr %8, ptr %4, align 8, !tbaa !18
  call void @llvm.lifetime.start.p0(i64 4, ptr %5) #15
  %9 = load ptr, ptr %4, align 8, !tbaa !18
  %10 = getelementptr inbounds nuw %struct.pty_info, ptr %9, i32 0, i32 1
  %11 = load i32, ptr %10, align 4, !tbaa !17
  %12 = call i32 @rb_waitpid(i32 noundef %11, ptr noundef %5, i32 noundef 1)
  %13 = icmp sle i32 %12, 0
  br i1 %13, label %14, label %15

14:                                               ; preds = %1
  store i64 4, ptr %2, align 8
  store i32 1, ptr %6, align 4
  br label %20

15:                                               ; preds = %1
  %16 = load ptr, ptr %4, align 8, !tbaa !18
  %17 = getelementptr inbounds nuw %struct.pty_info, ptr %16, i32 0, i32 1
  %18 = load i32, ptr %17, align 4, !tbaa !17
  %19 = call i64 @rb_detach_process(i32 noundef %18)
  store i64 4, ptr %2, align 8
  store i32 1, ptr %6, align 4
  br label %20

20:                                               ; preds = %15, %14
  call void @llvm.lifetime.end.p0(i64 4, ptr %5) #15
  call void @llvm.lifetime.end.p0(i64 8, ptr %4) #15
  %21 = load i64, ptr %2, align 8
  ret i64 %21
}