; Function Attrs: nounwind sspstrong uwtable
define internal noundef i64 @pty_detach_process(i64 noundef %0) #0 {
  %2 = alloca i32, align 4
  %3 = inttoptr i64 %0 to ptr
  call void @llvm.lifetime.start.p0(i64 4, ptr nonnull %2) #10
  %4 = getelementptr inbounds nuw i8, ptr %3, i64 4
  %5 = load i32, ptr %4, align 4, !tbaa !24
  %6 = call i32 @rb_waitpid(i32 noundef %5, ptr noundef nonnull %2, i32 noundef 1) #10
  %7 = icmp slt i32 %6, 1
  br i1 %7, label %11, label %8

8:                                                ; preds = %1
  %9 = load i32, ptr %4, align 4, !tbaa !24
  %10 = call i64 @rb_detach_process(i32 noundef %9) #10
  br label %11

11:                                               ; preds = %1, %8
  call void @llvm.lifetime.end.p0(i64 4, ptr nonnull %2) #10
  ret i64 4
}